target datalayout = "e-m:e-p270:32:32-p271:32:32-p272:64:64-i64:64-i128:128-f80:128-n8:16:32:64-S128"
target triple = "x86_64-pc-linux-gnu"

%struct._object = type { %union.anon, ptr }
%union.anon = type { i64 }
%struct.anon = type { i32, i32 }

@_Py_NoneStruct = external global %struct._object, align 8

; Function Attrs: alwaysinline nounwind uwtable
define internal i32 @_Py_IsImmortal(ptr noundef %0) #5 {
  %2 = alloca ptr, align 8
  store ptr %0, ptr %2, align 8, !tbaa !16
  %3 = load ptr, ptr %2, align 8, !tbaa !16
  %4 = getelementptr inbounds nuw %struct._object, ptr %3, i32 0, i32 0
  %5 = getelementptr inbounds nuw %struct.anon, ptr %4, i32 0, i32 0
  %6 = load i32, ptr %5, align 8, !tbaa !26
  %7 = icmp slt i32 %6, 0
  %8 = zext i1 %7 to i32
  ret i32 %8
}

; Function Attrs: alwaysinline nounwind uwtable
define internal void @Py_DECREF(ptr noundef %0) #5 {
  %2 = alloca ptr, align 8
  store ptr %0, ptr %2, align 8, !tbaa !16
  %3 = load ptr, ptr %2, align 8, !tbaa !16
  %4 = call i32 @_Py_IsImmortal(ptr noundef %3)
  %5 = icmp ne i32 %4, 0
  br i1 %5, label %6, label %7

6:                                                ; preds = %1
  br label %16

7:                                                ; preds = %1
  %8 = load ptr, ptr %2, align 8, !tbaa !16
  %9 = getelementptr inbounds nuw %struct._object, ptr %8, i32 0, i32 0
  %10 = getelementptr inbounds nuw %struct.anon, ptr %9, i32 0, i32 0
  %11 = load i32, ptr %10, align 8, !tbaa !26
  %12 = add i32 %11, -1
  store i32 %12, ptr %10, align 8, !tbaa !26
  %13 = icmp eq i32 %12, 0
  br i1 %13, label %14, label %16

14:                                               ; preds = %7
  %15 = load ptr, ptr %2, align 8, !tbaa !16
  call void @_Py_Dealloc(ptr noundef %15)
  br label %16

16:                                               ; preds = %6, %14, %7
  ret void
}

; Function Attrs: nounwind uwtable
define internal i32 @env_to_dict(ptr noundef %0, ptr noundef %1, i32 noundef %2) #0 {
  %4 = alloca ptr, align 8
  %5 = alloca ptr, align 8
  %6 = alloca i32, align 4
  %7 = alloca ptr, align 8
  %8 = alloca i32, align 4
  %9 = alloca ptr, align 8
  %10 = alloca i64, align 8
  %11 = alloca ptr, align 8
  store ptr %0, ptr %4, align 8, !tbaa !16
  store ptr %1, ptr %5, align 8, !tbaa !15
  store i32 %2, ptr %6, align 4, !tbaa !9
  call void @llvm.lifetime.start.p0(i64 8, ptr %7) #10
  store ptr null, ptr %7, align 8, !tbaa !16
  call void @llvm.lifetime.start.p0(i64 4, ptr %8) #10
  store i32 0, ptr %8, align 4, !tbaa !9
  call void @llvm.lifetime.start.p0(i64 8, ptr %9) #10
  %12 = load ptr, ptr %5, align 8, !tbaa !15
  %13 = getelementptr i8, ptr %12, i64 4
  %14 = call ptr @getenv(ptr noundef %13) #10
  store ptr %14, ptr %9, align 8, !tbaa !15
  %15 = load ptr, ptr %9, align 8, !tbaa !15
  %16 = icmp ne ptr %15, null
  br i1 %16, label %17, label %32

17:                                               ; preds = %3
  call void @llvm.lifetime.start.p0(i64 8, ptr %10) #10
  call void @llvm.lifetime.start.p0(i64 8, ptr %11) #10
  %18 = load ptr, ptr %9, align 8, !tbaa !15
  %19 = call ptr @Py_DecodeLocale(ptr noundef %18, ptr noundef %10)
  store ptr %19, ptr %11, align 8, !tbaa !29
  %20 = load ptr, ptr %11, align 8, !tbaa !29
  %21 = icmp ne ptr %20, null
  br i1 %21, label %22, label %31

22:                                               ; preds = %17
  %23 = load ptr, ptr %11, align 8, !tbaa !29
  %24 = load i64, ptr %10, align 8, !tbaa !30
  %25 = call ptr @PyUnicode_FromWideChar(ptr noundef %23, i64 noundef %24)
  store ptr %25, ptr %7, align 8, !tbaa !16
  %26 = load ptr, ptr %7, align 8, !tbaa !16
  %27 = icmp ne ptr %26, null
  br i1 %27, label %29, label %28

28:                                               ; preds = %22
  call void @PyErr_Clear()
  br label %29

29:                                               ; preds = %28, %22
  %30 = load ptr, ptr %11, align 8, !tbaa !29
  call void @PyMem_RawFree(ptr noundef %30)
  br label %31

31:                                               ; preds = %29, %17
  call void @llvm.lifetime.end.p0(i64 8, ptr %11) #10
  call void @llvm.lifetime.end.p0(i64 8, ptr %10) #10
  br label %32

32:                                               ; preds = %31, %3
  %33 = load ptr, ptr %7, align 8, !tbaa !16
  %34 = icmp ne ptr %33, null
  br i1 %34, label %35, label %43

35:                                               ; preds = %32
  %36 = load ptr, ptr %4, align 8, !tbaa !16
  %37 = load ptr, ptr %5, align 8, !tbaa !15
  %38 = load ptr, ptr %7, align 8, !tbaa !16
  %39 = call i32 @PyDict_SetItemString(ptr noundef %36, ptr noundef %37, ptr noundef %38)
  %40 = icmp eq i32 %39, 0
  %41 = zext i1 %40 to i32
  store i32 %41, ptr %8, align 4, !tbaa !9
  %42 = load ptr, ptr %7, align 8, !tbaa !16
  call void @Py_DECREF(ptr noundef %42)
  br label %49

43:                                               ; preds = %32
  %44 = load ptr, ptr %4, align 8, !tbaa !16
  %45 = load ptr, ptr %5, align 8, !tbaa !15
  %46 = call i32 @PyDict_SetItemString(ptr noundef %44, ptr noundef %45, ptr noundef @_Py_NoneStruct)
  %47 = icmp eq i32 %46, 0
  %48 = zext i1 %47 to i32
  store i32 %48, ptr %8, align 4, !tbaa !9
  br label %49

49:                                               ; preds = %43, %35
  %50 = load i32, ptr %8, align 4, !tbaa !9
  %51 = icmp ne i32 %50, 0
  br i1 %51, label %52, label %59

52:                                               ; preds = %49
  %53 = load i32, ptr %6, align 4, !tbaa !9
  %54 = icmp ne i32 %53, 0
  br i1 %54, label %55, label %59

55:                                               ; preds = %52
  %56 = load ptr, ptr %5, align 8, !tbaa !15
  %57 = getelementptr i8, ptr %56, i64 4
  %58 = call i32 @unsetenv(ptr noundef %57) #10
  br label %59

59:                                               ; preds = %55, %52, %49
  %60 = load i32, ptr %8, align 4, !tbaa !9
  call void @llvm.lifetime.end.p0(i64 8, ptr %9) #10
  call void @llvm.lifetime.end.p0(i64 4, ptr %8) #10
  call void @llvm.lifetime.end.p0(i64 8, ptr %7) #10
  ret i32 %60
}