; Function Attrs: nounwind uwtable
define internal fastcc range(i32 0, 2) i32 @env_to_dict(ptr noundef nonnull %0, ptr noundef %1, i32 noundef range(i32 0, 2) %2) unnamed_addr #0 {
  %4 = alloca i64, align 8
  %5 = getelementptr i8, ptr %1, i64 4
  %6 = tail call ptr @getenv(ptr noundef %5) #13
  %.not = icmp eq ptr %6, null
  br i1 %.not, label %.thread, label %7

7:                                                ; preds = %3
  call void @llvm.lifetime.start.p0(i64 8, ptr nonnull %4) #13
  %8 = call ptr @Py_DecodeLocale(ptr noundef nonnull %6, ptr noundef nonnull %4) #13
  %.not21 = icmp eq ptr %8, null
  br i1 %.not21, label %.thread.sink.split, label %9

9:                                                ; preds = %7
  %10 = load i64, ptr %4, align 8, !tbaa !26
  %11 = call ptr @PyUnicode_FromWideChar(ptr noundef nonnull %8, i64 noundef %10) #13
  %.not22 = icmp eq ptr %11, null
  br i1 %.not22, label %.thread29, label %12

.thread29:                                        ; preds = %9
  call void @PyErr_Clear() #13
  call void @PyMem_RawFree(ptr noundef nonnull %8) #13
  br label %.thread.sink.split

12:                                               ; preds = %9
  call void @PyMem_RawFree(ptr noundef nonnull %8) #13
  call void @llvm.lifetime.end.p0(i64 8, ptr nonnull %4) #13
  %13 = call i32 @PyDict_SetItemString(ptr noundef nonnull %0, ptr noundef %1, ptr noundef nonnull %11) #13
  %14 = load i32, ptr %11, align 8, !tbaa !16
  %.not.i = icmp sgt i32 %14, -1
  br i1 %.not.i, label %15, label %Py_DECREF.exit

15:                                               ; preds = %12
  %16 = add nsw i32 %14, -1
  store i32 %16, ptr %11, align 8, !tbaa !16
  %17 = icmp eq i32 %16, 0
  br i1 %17, label %18, label %Py_DECREF.exit

18:                                               ; preds = %15
  call void @_Py_Dealloc(ptr noundef nonnull %11) #13
  br label %Py_DECREF.exit

.thread.sink.split:                               ; preds = %7, %.thread29
  call void @llvm.lifetime.end.p0(i64 8, ptr nonnull %4) #13
  br label %.thread

.thread:                                          ; preds = %.thread.sink.split, %3
  %19 = call i32 @PyDict_SetItemString(ptr noundef nonnull %0, ptr noundef %1, ptr noundef nonnull @_Py_NoneStruct) #13
  br label %Py_DECREF.exit

Py_DECREF.exit:                                   ; preds = %18, %15, %12, %.thread
  %.018.in.in = phi i32 [ %19, %.thread ], [ %13, %12 ], [ %13, %15 ], [ %13, %18 ]
  %.018.in = icmp eq i32 %.018.in.in, 0
  %20 = icmp ne i32 %2, 0
  %or.cond = and i1 %20, %.018.in
  br i1 %or.cond, label %21, label %23

21:                                               ; preds = %Py_DECREF.exit
  %22 = call i32 @unsetenv(ptr noundef %5) #13
  br label %23

23:                                               ; preds = %21, %Py_DECREF.exit
  %.018 = zext i1 %.018.in to i32
  ret i32 %.018
}